
illumination.elf:     file format elf32-avr

Sections:
Idx Name          Size      VMA       LMA       File off  Algn
  0 .text         0000039c  00000000  00000000  00000074  2**1
                  CONTENTS, ALLOC, LOAD, READONLY, CODE
  1 .data         00000000  00800060  00800060  00000410  2**0
                  CONTENTS, ALLOC, LOAD, DATA
  2 .bss          00000005  00800060  00800060  00000410  2**0
                  ALLOC
  3 .comment      00000030  00000000  00000000  00000410  2**0
                  CONTENTS, READONLY
  4 .note.gnu.avr.deviceinfo 0000003c  00000000  00000000  00000440  2**2
                  CONTENTS, READONLY
  5 .debug_aranges 000000a8  00000000  00000000  0000047c  2**0
                  CONTENTS, READONLY, DEBUGGING
  6 .debug_info   00000eda  00000000  00000000  00000524  2**0
                  CONTENTS, READONLY, DEBUGGING
  7 .debug_abbrev 00000656  00000000  00000000  000013fe  2**0
                  CONTENTS, READONLY, DEBUGGING
  8 .debug_line   0000055e  00000000  00000000  00001a54  2**0
                  CONTENTS, READONLY, DEBUGGING
  9 .debug_frame  000001c4  00000000  00000000  00001fb4  2**2
                  CONTENTS, READONLY, DEBUGGING
 10 .debug_str    00000476  00000000  00000000  00002178  2**0
                  CONTENTS, READONLY, DEBUGGING
 11 .debug_loc    00000732  00000000  00000000  000025ee  2**0
                  CONTENTS, READONLY, DEBUGGING
 12 .debug_ranges 000000b0  00000000  00000000  00002d20  2**0
                  CONTENTS, READONLY, DEBUGGING

Disassembly of section .text:

00000000 <__vectors>:
   0:	09 c0       	rjmp	.+18     	; 0x14 <__ctors_end>
   2:	df c0       	rjmp	.+446    	; 0x1c2 <__vector_1>
   4:	15 c0       	rjmp	.+42     	; 0x30 <__bad_interrupt>
   6:	14 c0       	rjmp	.+40     	; 0x30 <__bad_interrupt>
   8:	13 c0       	rjmp	.+38     	; 0x30 <__bad_interrupt>
   a:	12 c0       	rjmp	.+36     	; 0x30 <__bad_interrupt>
   c:	11 c0       	rjmp	.+34     	; 0x30 <__bad_interrupt>
   e:	10 c0       	rjmp	.+32     	; 0x30 <__bad_interrupt>
  10:	10 c0       	rjmp	.+32     	; 0x32 <__vector_8>
  12:	0e c0       	rjmp	.+28     	; 0x30 <__bad_interrupt>

00000014 <__ctors_end>:
  14:	11 24       	eor	r1, r1
  16:	1f be       	out	0x3f, r1	; 63
  18:	cf e9       	ldi	r28, 0x9F	; 159
  1a:	cd bf       	out	0x3d, r28	; 61

0000001c <__do_clear_bss>:
  1c:	20 e0       	ldi	r18, 0x00	; 0
  1e:	a0 e6       	ldi	r26, 0x60	; 96
  20:	b0 e0       	ldi	r27, 0x00	; 0
  22:	01 c0       	rjmp	.+2      	; 0x26 <.do_clear_bss_start>

00000024 <.do_clear_bss_loop>:
  24:	1d 92       	st	X+, r1

00000026 <.do_clear_bss_start>:
  26:	a5 36       	cpi	r26, 0x65	; 101
  28:	b2 07       	cpc	r27, r18
  2a:	e1 f7       	brne	.-8      	; 0x24 <.do_clear_bss_loop>
  2c:	ea d0       	rcall	.+468    	; 0x202 <main>
  2e:	b4 c1       	rjmp	.+872    	; 0x398 <_exit>

00000030 <__bad_interrupt>:
  30:	e7 cf       	rjmp	.-50     	; 0x0 <__vectors>

00000032 <__vector_8>:
		}
	byte readExInt(){
		byte n=flag;
		flag =0;
		return n;
	}
  32:	1f 92       	push	r1
  34:	0f 92       	push	r0
  36:	0f b6       	in	r0, 0x3f	; 63
  38:	0f 92       	push	r0
  3a:	11 24       	eor	r1, r1
  3c:	8f 93       	push	r24
  3e:	9f 93       	push	r25
  40:	af 93       	push	r26
  42:	bf 93       	push	r27
  44:	80 91 61 00 	lds	r24, 0x0061	; 0x800061 <cikle>
  48:	90 91 62 00 	lds	r25, 0x0062	; 0x800062 <cikle+0x1>
  4c:	a0 91 63 00 	lds	r26, 0x0063	; 0x800063 <cikle+0x2>
  50:	b0 91 64 00 	lds	r27, 0x0064	; 0x800064 <cikle+0x3>
  54:	40 96       	adiw	r24, 0x10	; 16
  56:	a1 1d       	adc	r26, r1
  58:	b1 1d       	adc	r27, r1
  5a:	80 93 61 00 	sts	0x0061, r24	; 0x800061 <cikle>
  5e:	90 93 62 00 	sts	0x0062, r25	; 0x800062 <cikle+0x1>
  62:	a0 93 63 00 	sts	0x0063, r26	; 0x800063 <cikle+0x2>
  66:	b0 93 64 00 	sts	0x0064, r27	; 0x800064 <cikle+0x3>
  6a:	bf 91       	pop	r27
  6c:	af 91       	pop	r26
  6e:	9f 91       	pop	r25
  70:	8f 91       	pop	r24
  72:	0f 90       	pop	r0
  74:	0f be       	out	0x3f, r0	; 63
  76:	0f 90       	pop	r0
  78:	1f 90       	pop	r1
  7a:	18 95       	reti

0000007c <_Z6wBeginv>:
  7c:	81 b5       	in	r24, 0x21	; 33
  7e:	80 61       	ori	r24, 0x10	; 16
  80:	81 bd       	out	0x21, r24	; 33
  82:	81 b5       	in	r24, 0x21	; 33
  84:	80 64       	ori	r24, 0x40	; 64
  86:	81 bd       	out	0x21, r24	; 33
  88:	78 94       	sei
  8a:	08 95       	ret

0000008c <_Z5delaym>:
  8c:	0f 93       	push	r16
  8e:	1f 93       	push	r17
  90:	8b 01       	movw	r16, r22
  92:	9c 01       	movw	r18, r24
  94:	40 91 61 00 	lds	r20, 0x0061	; 0x800061 <cikle>
  98:	50 91 62 00 	lds	r21, 0x0062	; 0x800062 <cikle+0x1>
  9c:	60 91 63 00 	lds	r22, 0x0063	; 0x800063 <cikle+0x2>
  a0:	70 91 64 00 	lds	r23, 0x0064	; 0x800064 <cikle+0x3>
  a4:	80 91 61 00 	lds	r24, 0x0061	; 0x800061 <cikle>
  a8:	90 91 62 00 	lds	r25, 0x0062	; 0x800062 <cikle+0x1>
  ac:	a0 91 63 00 	lds	r26, 0x0063	; 0x800063 <cikle+0x2>
  b0:	b0 91 64 00 	lds	r27, 0x0064	; 0x800064 <cikle+0x3>
  b4:	84 1b       	sub	r24, r20
  b6:	95 0b       	sbc	r25, r21
  b8:	a6 0b       	sbc	r26, r22
  ba:	b7 0b       	sbc	r27, r23
  bc:	80 17       	cp	r24, r16
  be:	91 07       	cpc	r25, r17
  c0:	a2 07       	cpc	r26, r18
  c2:	b3 07       	cpc	r27, r19
  c4:	78 f3       	brcs	.-34     	; 0xa4 <__stack+0x5>
  c6:	1f 91       	pop	r17
  c8:	0f 91       	pop	r16
  ca:	08 95       	ret

000000cc <_ZN3LedC1Ev>:
  cc:	b8 9a       	sbi	0x17, 0	; 23
  ce:	85 b7       	in	r24, 0x35	; 53
  d0:	80 64       	ori	r24, 0x40	; 64
  d2:	85 bf       	out	0x35, r24	; 53
  d4:	81 e8       	ldi	r24, 0x81	; 129
  d6:	8f bd       	out	0x2f, r24	; 47
  d8:	81 e0       	ldi	r24, 0x01	; 1
  da:	83 bf       	out	0x33, r24	; 51
  dc:	08 95       	ret

000000de <_ZN3Led5ledOnEh>:
  de:	66 23       	and	r22, r22
  e0:	59 f0       	breq	.+22     	; 0xf8 <_ZN3Led5ledOnEh+0x1a>
  e2:	26 2f       	mov	r18, r22
  e4:	22 0f       	add	r18, r18
  e6:	62 0f       	add	r22, r18
  e8:	26 2f       	mov	r18, r22
  ea:	22 95       	swap	r18
  ec:	20 7f       	andi	r18, 0xF0	; 240
  ee:	62 0f       	add	r22, r18
  f0:	fc 01       	movw	r30, r24
  f2:	60 83       	st	Z, r22
  f4:	66 bf       	out	0x36, r22	; 54
  f6:	08 95       	ret
  f8:	fc 01       	movw	r30, r24
  fa:	80 81       	ld	r24, Z
  fc:	86 bf       	out	0x36, r24	; 54
  fe:	08 95       	ret

00000100 <_ZN3Led2UpEv>:
 100:	9c 01       	movw	r18, r24
 102:	86 b7       	in	r24, 0x36	; 54
 104:	8f 3f       	cpi	r24, 0xFF	; 255
 106:	21 f4       	brne	.+8      	; 0x110 <_ZN3Led2UpEv+0x10>
 108:	61 e0       	ldi	r22, 0x01	; 1
 10a:	c9 01       	movw	r24, r18
 10c:	e8 df       	rcall	.-48     	; 0xde <_ZN3Led5ledOnEh>
 10e:	08 95       	ret
 110:	86 b7       	in	r24, 0x36	; 54
 112:	63 e3       	ldi	r22, 0x33	; 51
 114:	0e d1       	rcall	.+540    	; 0x332 <__udivmodqi4>
 116:	61 e0       	ldi	r22, 0x01	; 1
 118:	68 0f       	add	r22, r24
 11a:	c9 01       	movw	r24, r18
 11c:	e0 df       	rcall	.-64     	; 0xde <_ZN3Led5ledOnEh>
 11e:	08 95       	ret

00000120 <_ZN3Led9ledInvertEv>:
 120:	26 b7       	in	r18, 0x36	; 54
 122:	22 23       	and	r18, r18
 124:	11 f0       	breq	.+4      	; 0x12a <_ZN3Led9ledInvertEv+0xa>
 126:	16 be       	out	0x36, r1	; 54
 128:	08 95       	ret
 12a:	60 e0       	ldi	r22, 0x00	; 0
 12c:	d8 df       	rcall	.-80     	; 0xde <_ZN3Led5ledOnEh>
 12e:	08 95       	ret

00000130 <_ZN3Led9ledInvertEi>:
 130:	ef 92       	push	r14
 132:	ff 92       	push	r15
 134:	0f 93       	push	r16
 136:	1f 93       	push	r17
 138:	cf 93       	push	r28
 13a:	df 93       	push	r29
 13c:	77 23       	and	r23, r23
 13e:	14 f4       	brge	.+4      	; 0x144 <_ZN3Led9ledInvertEi+0x14>
 140:	61 5f       	subi	r22, 0xF1	; 241
 142:	7f 4f       	sbci	r23, 0xFF	; 255
 144:	eb 01       	movw	r28, r22
 146:	d5 95       	asr	r29
 148:	c7 95       	ror	r28
 14a:	d5 95       	asr	r29
 14c:	c7 95       	ror	r28
 14e:	d5 95       	asr	r29
 150:	c7 95       	ror	r28
 152:	d5 95       	asr	r29
 154:	c7 95       	ror	r28
 156:	fc 01       	movw	r30, r24
 158:	80 81       	ld	r24, Z
 15a:	90 e0       	ldi	r25, 0x00	; 0
 15c:	be 01       	movw	r22, r28
 15e:	f5 d0       	rcall	.+490    	; 0x34a <__divmodhi4>
 160:	16 b7       	in	r17, 0x36	; 54
 162:	11 11       	cpse	r17, r1
 164:	03 c0       	rjmp	.+6      	; 0x16c <_ZN3Led9ledInvertEi+0x3c>
 166:	dd 23       	and	r29, r29
 168:	ac f4       	brge	.+42     	; 0x194 <_ZN3Led9ledInvertEi+0x64>
 16a:	24 c0       	rjmp	.+72     	; 0x1b4 <_ZN3Led9ledInvertEi+0x84>
 16c:	dd 23       	and	r29, r29
 16e:	14 f1       	brlt	.+68     	; 0x1b4 <_ZN3Led9ledInvertEi+0x84>
 170:	06 2f       	mov	r16, r22
 172:	86 2f       	mov	r24, r22
 174:	6c 2f       	mov	r22, r28
 176:	d4 d0       	rcall	.+424    	; 0x320 <__mulqi3>
 178:	18 2f       	mov	r17, r24
 17a:	16 bf       	out	0x36, r17	; 54
 17c:	60 e1       	ldi	r22, 0x10	; 16
 17e:	70 e0       	ldi	r23, 0x00	; 0
 180:	80 e0       	ldi	r24, 0x00	; 0
 182:	90 e0       	ldi	r25, 0x00	; 0
 184:	83 df       	rcall	.-250    	; 0x8c <_Z5delaym>
 186:	21 97       	sbiw	r28, 0x01	; 1
 188:	10 1b       	sub	r17, r16
 18a:	cf 3f       	cpi	r28, 0xFF	; 255
 18c:	ff ef       	ldi	r31, 0xFF	; 255
 18e:	df 07       	cpc	r29, r31
 190:	a1 f7       	brne	.-24     	; 0x17a <_ZN3Led9ledInvertEi+0x4a>
 192:	10 c0       	rjmp	.+32     	; 0x1b4 <_ZN3Led9ledInvertEi+0x84>
 194:	06 2f       	mov	r16, r22
 196:	e1 2c       	mov	r14, r1
 198:	f1 2c       	mov	r15, r1
 19a:	16 bf       	out	0x36, r17	; 54
 19c:	60 e1       	ldi	r22, 0x10	; 16
 19e:	70 e0       	ldi	r23, 0x00	; 0
 1a0:	80 e0       	ldi	r24, 0x00	; 0
 1a2:	90 e0       	ldi	r25, 0x00	; 0
 1a4:	73 df       	rcall	.-282    	; 0x8c <_Z5delaym>
 1a6:	8f ef       	ldi	r24, 0xFF	; 255
 1a8:	e8 1a       	sub	r14, r24
 1aa:	f8 0a       	sbc	r15, r24
 1ac:	10 0f       	add	r17, r16
 1ae:	ce 15       	cp	r28, r14
 1b0:	df 05       	cpc	r29, r15
 1b2:	9c f7       	brge	.-26     	; 0x19a <_ZN3Led9ledInvertEi+0x6a>
 1b4:	df 91       	pop	r29
 1b6:	cf 91       	pop	r28
 1b8:	1f 91       	pop	r17
 1ba:	0f 91       	pop	r16
 1bc:	ff 90       	pop	r15
 1be:	ef 90       	pop	r14
 1c0:	08 95       	ret

000001c2 <__vector_1>:
 1c2:	1f 92       	push	r1
 1c4:	0f 92       	push	r0
 1c6:	0f b6       	in	r0, 0x3f	; 63
 1c8:	0f 92       	push	r0
 1ca:	11 24       	eor	r1, r1
 1cc:	8f 93       	push	r24
 1ce:	80 91 60 00 	lds	r24, 0x0060	; 0x800060 <_edata>
 1d2:	8f 5f       	subi	r24, 0xFF	; 255
 1d4:	80 93 60 00 	sts	0x0060, r24	; 0x800060 <_edata>
 1d8:	8f 91       	pop	r24
 1da:	0f 90       	pop	r0
 1dc:	0f be       	out	0x3f, r0	; 63
 1de:	0f 90       	pop	r0
 1e0:	1f 90       	pop	r1
 1e2:	18 95       	reti

000001e4 <_Z10ExIntBeginv>:
 1e4:	ba 98       	cbi	0x17, 2	; 23
 1e6:	c2 9a       	sbi	0x18, 2	; 24
 1e8:	83 e0       	ldi	r24, 0x03	; 3
 1ea:	85 bf       	out	0x35, r24	; 53
 1ec:	80 e4       	ldi	r24, 0x40	; 64
 1ee:	8b bf       	out	0x3b, r24	; 59
 1f0:	78 94       	sei
 1f2:	08 95       	ret

000001f4 <_Z14availableExIntv>:
	bool availableExInt(){
		if(flag)return 1;
 1f4:	90 91 60 00 	lds	r25, 0x0060	; 0x800060 <_edata>
 1f8:	81 e0       	ldi	r24, 0x01	; 1
 1fa:	91 11       	cpse	r25, r1
 1fc:	01 c0       	rjmp	.+2      	; 0x200 <_Z14availableExIntv+0xc>
 1fe:	80 e0       	ldi	r24, 0x00	; 0
		else return 0;
 200:	08 95       	ret

00000202 <main>:
	(переход на следующий уровень яркости при однократном 
	нажатии). выход из режима настройки по двойному нажатию
	
*/	
int main()
{
 202:	cf 93       	push	r28
 204:	df 93       	push	r29
 206:	1f 92       	push	r1
 208:	cd b7       	in	r28, 0x3d	; 61
 20a:	dd 27       	eor	r29, r29
	Led led; 
 20c:	ce 01       	movw	r24, r28
 20e:	01 96       	adiw	r24, 0x01	; 1
 210:	5d df       	rcall	.-326    	; 0xcc <_ZN3LedC1Ev>
	wBegin();
 212:	34 df       	rcall	.-408    	; 0x7c <_Z6wBeginv>
	ExIntBegin();
 214:	e7 df       	rcall	.-50     	; 0x1e4 <_Z10ExIntBeginv>
}

/////////////////////////////////////////////

void Led::setImputValue(byte value){
	 OCR0A=value;//255-value;
 216:	16 be       	out	0x36, r1	; 54

	led.ledOff();
	delay(300);
 218:	6c e2       	ldi	r22, 0x2C	; 44
 21a:	71 e0       	ldi	r23, 0x01	; 1
 21c:	80 e0       	ldi	r24, 0x00	; 0
 21e:	90 e0       	ldi	r25, 0x00	; 0
 220:	35 df       	rcall	.-406    	; 0x8c <_Z5delaym>
 222:	10 e0       	ldi	r17, 0x00	; 0
	for(int n=0;n<6;n++){
		led.ledOn(n);
 224:	61 2f       	mov	r22, r17
 226:	ce 01       	movw	r24, r28
 228:	01 96       	adiw	r24, 0x01	; 1
 22a:	59 df       	rcall	.-334    	; 0xde <_ZN3Led5ledOnEh>
		delay(200);
 22c:	68 ec       	ldi	r22, 0xC8	; 200
 22e:	70 e0       	ldi	r23, 0x00	; 0
 230:	80 e0       	ldi	r24, 0x00	; 0
 232:	90 e0       	ldi	r25, 0x00	; 0
 234:	2b df       	rcall	.-426    	; 0x8c <_Z5delaym>
 236:	1f 5f       	subi	r17, 0xFF	; 255
	wBegin();
	ExIntBegin();

	led.ledOff();
	delay(300);
	for(int n=0;n<6;n++){
 238:	16 30       	cpi	r17, 0x06	; 6
 23a:	a1 f7       	brne	.-24     	; 0x224 <main+0x22>
 23c:	15 e0       	ldi	r17, 0x05	; 5
		led.ledOn(n);
		delay(200);
	}
		for(int n=5;n>=0;n--){
			led.ledOn(n);
 23e:	61 2f       	mov	r22, r17
 240:	ce 01       	movw	r24, r28
 242:	01 96       	adiw	r24, 0x01	; 1
 244:	4c df       	rcall	.-360    	; 0xde <_ZN3Led5ledOnEh>
			delay(200);
 246:	68 ec       	ldi	r22, 0xC8	; 200
 248:	70 e0       	ldi	r23, 0x00	; 0
 24a:	80 e0       	ldi	r24, 0x00	; 0
 24c:	90 e0       	ldi	r25, 0x00	; 0
 24e:	1e df       	rcall	.-452    	; 0x8c <_Z5delaym>
 250:	11 50       	subi	r17, 0x01	; 1
 252:	a8 f7       	brcc	.-22     	; 0x23e <main+0x3c>
 254:	16 be       	out	0x36, r1	; 54


/////////Start///////

	while(1){
		if(availableExInt()){
 256:	ce df       	rcall	.-100    	; 0x1f4 <_Z14availableExIntv>
 258:	88 23       	and	r24, r24
 25a:	e9 f3       	breq	.-6      	; 0x256 <main+0x54>
			delay(220);
 25c:	6c ed       	ldi	r22, 0xDC	; 220
 25e:	70 e0       	ldi	r23, 0x00	; 0
 260:	80 e0       	ldi	r24, 0x00	; 0
 262:	90 e0       	ldi	r25, 0x00	; 0
 264:	13 df       	rcall	.-474    	; 0x8c <_Z5delaym>
			GIMSK= (1<<INT0);
			#endif
			sei();
		}
	byte readExInt(){
		byte n=flag;
 266:	80 91 60 00 	lds	r24, 0x0060	; 0x800060 <_edata>
		flag =0;
 26a:	10 92 60 00 	sts	0x0060, r1	; 0x800060 <_edata>
			int n=(int)readExInt();
 26e:	90 e0       	ldi	r25, 0x00	; 0
			
			//однократное нажатие
			if(n==1){
 270:	81 30       	cpi	r24, 0x01	; 1
 272:	91 05       	cpc	r25, r1
 274:	31 f4       	brne	.+12     	; 0x282 <main+0x80>
				led.ledInvert(800);
 276:	60 e2       	ldi	r22, 0x20	; 32
 278:	73 e0       	ldi	r23, 0x03	; 3
 27a:	ce 01       	movw	r24, r28
 27c:	01 96       	adiw	r24, 0x01	; 1
 27e:	58 df       	rcall	.-336    	; 0x130 <_ZN3Led9ledInvertEi>
 280:	ea cf       	rjmp	.-44     	; 0x256 <main+0x54>
			}
			
			//при нескольких нажатиях сразу
			else if(n>1){
 282:	02 97       	sbiw	r24, 0x02	; 2
 284:	44 f3       	brlt	.-48     	; 0x256 <main+0x54>
				led.ledInvert();
 286:	ce 01       	movw	r24, r28
 288:	01 96       	adiw	r24, 0x01	; 1
 28a:	4a df       	rcall	.-364    	; 0x120 <_ZN3Led9ledInvertEv>
				delay(220);
 28c:	6c ed       	ldi	r22, 0xDC	; 220
 28e:	70 e0       	ldi	r23, 0x00	; 0
 290:	80 e0       	ldi	r24, 0x00	; 0
 292:	90 e0       	ldi	r25, 0x00	; 0
 294:	fb de       	rcall	.-522    	; 0x8c <_Z5delaym>
				led.ledInvert();
 296:	ce 01       	movw	r24, r28
 298:	01 96       	adiw	r24, 0x01	; 1
 29a:	42 df       	rcall	.-380    	; 0x120 <_ZN3Led9ledInvertEv>
				delay(220);
 29c:	6c ed       	ldi	r22, 0xDC	; 220
 29e:	70 e0       	ldi	r23, 0x00	; 0
 2a0:	80 e0       	ldi	r24, 0x00	; 0
 2a2:	90 e0       	ldi	r25, 0x00	; 0
 2a4:	f3 de       	rcall	.-538    	; 0x8c <_Z5delaym>
				led.ledInvert();
 2a6:	ce 01       	movw	r24, r28
 2a8:	01 96       	adiw	r24, 0x01	; 1
 2aa:	3a df       	rcall	.-396    	; 0x120 <_ZN3Led9ledInvertEv>
				delay(220);
 2ac:	6c ed       	ldi	r22, 0xDC	; 220
 2ae:	70 e0       	ldi	r23, 0x00	; 0
 2b0:	80 e0       	ldi	r24, 0x00	; 0
 2b2:	90 e0       	ldi	r25, 0x00	; 0
 2b4:	eb de       	rcall	.-554    	; 0x8c <_Z5delaym>
				led.ledInvert();
 2b6:	ce 01       	movw	r24, r28
 2b8:	01 96       	adiw	r24, 0x01	; 1
 2ba:	32 df       	rcall	.-412    	; 0x120 <_ZN3Led9ledInvertEv>
				//
				while(1){
					if(availableExInt()){
 2bc:	9b df       	rcall	.-202    	; 0x1f4 <_Z14availableExIntv>
 2be:	88 23       	and	r24, r24
 2c0:	e9 f3       	breq	.-6      	; 0x2bc <main+0xba>
						delay(220);
 2c2:	6c ed       	ldi	r22, 0xDC	; 220
 2c4:	70 e0       	ldi	r23, 0x00	; 0
 2c6:	80 e0       	ldi	r24, 0x00	; 0
 2c8:	90 e0       	ldi	r25, 0x00	; 0
 2ca:	e0 de       	rcall	.-576    	; 0x8c <_Z5delaym>
			GIMSK= (1<<INT0);
			#endif
			sei();
		}
	byte readExInt(){
		byte n=flag;
 2cc:	80 91 60 00 	lds	r24, 0x0060	; 0x800060 <_edata>
		flag =0;
 2d0:	10 92 60 00 	sts	0x0060, r1	; 0x800060 <_edata>
						int l=(int)readExInt();
 2d4:	90 e0       	ldi	r25, 0x00	; 0
						if(l==1)led.Up();
 2d6:	81 30       	cpi	r24, 0x01	; 1
 2d8:	91 05       	cpc	r25, r1
 2da:	21 f4       	brne	.+8      	; 0x2e4 <main+0xe2>
 2dc:	ce 01       	movw	r24, r28
 2de:	01 96       	adiw	r24, 0x01	; 1
 2e0:	0f df       	rcall	.-482    	; 0x100 <_ZN3Led2UpEv>
 2e2:	ec cf       	rjmp	.-40     	; 0x2bc <main+0xba>
						else if(l>1)break;
 2e4:	02 97       	sbiw	r24, 0x02	; 2
 2e6:	54 f3       	brlt	.-44     	; 0x2bc <main+0xba>
					}
				}
				led.ledInvert();
 2e8:	ce 01       	movw	r24, r28
 2ea:	01 96       	adiw	r24, 0x01	; 1
 2ec:	19 df       	rcall	.-462    	; 0x120 <_ZN3Led9ledInvertEv>
				delay(220);
 2ee:	6c ed       	ldi	r22, 0xDC	; 220
 2f0:	70 e0       	ldi	r23, 0x00	; 0
 2f2:	80 e0       	ldi	r24, 0x00	; 0
 2f4:	90 e0       	ldi	r25, 0x00	; 0
 2f6:	ca de       	rcall	.-620    	; 0x8c <_Z5delaym>
				led.ledInvert();
 2f8:	ce 01       	movw	r24, r28
 2fa:	01 96       	adiw	r24, 0x01	; 1
 2fc:	11 df       	rcall	.-478    	; 0x120 <_ZN3Led9ledInvertEv>
				delay(220);
 2fe:	6c ed       	ldi	r22, 0xDC	; 220
 300:	70 e0       	ldi	r23, 0x00	; 0
 302:	80 e0       	ldi	r24, 0x00	; 0
 304:	90 e0       	ldi	r25, 0x00	; 0
 306:	c2 de       	rcall	.-636    	; 0x8c <_Z5delaym>
				led.ledInvert();
 308:	ce 01       	movw	r24, r28
 30a:	01 96       	adiw	r24, 0x01	; 1
 30c:	09 df       	rcall	.-494    	; 0x120 <_ZN3Led9ledInvertEv>
				delay(220);
 30e:	6c ed       	ldi	r22, 0xDC	; 220
 310:	70 e0       	ldi	r23, 0x00	; 0
 312:	80 e0       	ldi	r24, 0x00	; 0
 314:	90 e0       	ldi	r25, 0x00	; 0
 316:	ba de       	rcall	.-652    	; 0x8c <_Z5delaym>
				led.ledInvert();
 318:	ce 01       	movw	r24, r28
 31a:	01 96       	adiw	r24, 0x01	; 1
 31c:	01 df       	rcall	.-510    	; 0x120 <_ZN3Led9ledInvertEv>
 31e:	9b cf       	rjmp	.-202    	; 0x256 <main+0x54>

00000320 <__mulqi3>:
 320:	00 24       	eor	r0, r0

00000322 <__mulqi3_loop>:
 322:	80 fd       	sbrc	r24, 0
 324:	06 0e       	add	r0, r22
 326:	66 0f       	add	r22, r22
 328:	11 f0       	breq	.+4      	; 0x32e <__mulqi3_exit>
 32a:	86 95       	lsr	r24
 32c:	d1 f7       	brne	.-12     	; 0x322 <__mulqi3_loop>

0000032e <__mulqi3_exit>:
 32e:	80 2d       	mov	r24, r0
 330:	08 95       	ret

00000332 <__udivmodqi4>:
 332:	99 1b       	sub	r25, r25
 334:	79 e0       	ldi	r23, 0x09	; 9
 336:	04 c0       	rjmp	.+8      	; 0x340 <__udivmodqi4_ep>

00000338 <__udivmodqi4_loop>:
 338:	99 1f       	adc	r25, r25
 33a:	96 17       	cp	r25, r22
 33c:	08 f0       	brcs	.+2      	; 0x340 <__udivmodqi4_ep>
 33e:	96 1b       	sub	r25, r22

00000340 <__udivmodqi4_ep>:
 340:	88 1f       	adc	r24, r24
 342:	7a 95       	dec	r23
 344:	c9 f7       	brne	.-14     	; 0x338 <__udivmodqi4_loop>
 346:	80 95       	com	r24
 348:	08 95       	ret

0000034a <__divmodhi4>:
 34a:	97 fb       	bst	r25, 7
 34c:	07 2e       	mov	r0, r23
 34e:	16 f4       	brtc	.+4      	; 0x354 <__divmodhi4+0xa>
 350:	00 94       	com	r0
 352:	06 d0       	rcall	.+12     	; 0x360 <__divmodhi4_neg1>
 354:	77 fd       	sbrc	r23, 7
 356:	08 d0       	rcall	.+16     	; 0x368 <__divmodhi4_neg2>
 358:	0b d0       	rcall	.+22     	; 0x370 <__udivmodhi4>
 35a:	07 fc       	sbrc	r0, 7
 35c:	05 d0       	rcall	.+10     	; 0x368 <__divmodhi4_neg2>
 35e:	3e f4       	brtc	.+14     	; 0x36e <__divmodhi4_exit>

00000360 <__divmodhi4_neg1>:
 360:	90 95       	com	r25
 362:	81 95       	neg	r24
 364:	9f 4f       	sbci	r25, 0xFF	; 255
 366:	08 95       	ret

00000368 <__divmodhi4_neg2>:
 368:	70 95       	com	r23
 36a:	61 95       	neg	r22
 36c:	7f 4f       	sbci	r23, 0xFF	; 255

0000036e <__divmodhi4_exit>:
 36e:	08 95       	ret

00000370 <__udivmodhi4>:
 370:	aa 1b       	sub	r26, r26
 372:	bb 1b       	sub	r27, r27
 374:	51 e1       	ldi	r21, 0x11	; 17
 376:	07 c0       	rjmp	.+14     	; 0x386 <__udivmodhi4_ep>

00000378 <__udivmodhi4_loop>:
 378:	aa 1f       	adc	r26, r26
 37a:	bb 1f       	adc	r27, r27
 37c:	a6 17       	cp	r26, r22
 37e:	b7 07       	cpc	r27, r23
 380:	10 f0       	brcs	.+4      	; 0x386 <__udivmodhi4_ep>
 382:	a6 1b       	sub	r26, r22
 384:	b7 0b       	sbc	r27, r23

00000386 <__udivmodhi4_ep>:
 386:	88 1f       	adc	r24, r24
 388:	99 1f       	adc	r25, r25
 38a:	5a 95       	dec	r21
 38c:	a9 f7       	brne	.-22     	; 0x378 <__udivmodhi4_loop>
 38e:	80 95       	com	r24
 390:	90 95       	com	r25
 392:	bc 01       	movw	r22, r24
 394:	cd 01       	movw	r24, r26
 396:	08 95       	ret

00000398 <_exit>:
 398:	f8 94       	cli

0000039a <__stop_program>:
 39a:	ff cf       	rjmp	.-2      	; 0x39a <__stop_program>
